target datalayout = "e-m:e-p270:32:32-p271:32:32-p272:64:64-i64:64-i128:128-f80:128-n8:16:32:64-S128"
target triple = "x86_64-pc-linux-gnu"

%class.QString = type { %struct.QArrayDataPointer }
%struct.QArrayDataPointer = type { ptr, ptr, i64 }
%class.ImportTextDialog = type <{ %class.QDialog, ptr, %class.QMap, ptr, ptr, %struct.text_import_info_t, %class.QString, i8, i8, i8, i8, i8, i8, i8, i8, i8, i8, i8, i8, i8, i8, i8, i8, i8, [7 x i8] }>
%class.QDialog = type { %class.QWidget }
%class.QWidget = type { %class.QObject, %class.QPaintDevice.base, ptr }
%class.QObject = type { ptr, %class.QScopedPointer }
%class.QScopedPointer = type { ptr }
%class.QPaintDevice.base = type <{ ptr, i16 }>
%class.QMap = type { %"class.QtPrivate::QExplicitlySharedDataPointerV2" }
%"class.QtPrivate::QExplicitlySharedDataPointerV2" = type { ptr }
%struct.text_import_info_t = type { ptr, ptr, i32, %struct.anon, %struct.anon.0, ptr, i32, ptr, i32, i32, i8, %union.anon, %union.anon.1, i32, i32, i32, i32, i32, ptr, i32, i32, i32 }
%struct.anon = type { ptr, i32, i8, i8, i8 }
%struct.anon.0 = type { ptr, ptr, i32, ptr, ptr }
%union.anon = type { i32, [12 x i8] }
%union.anon.1 = type { i32, [12 x i8] }
%class.Ui_ImportTextDialog = type { ptr, ptr, ptr, ptr, ptr, ptr, ptr, ptr, ptr, ptr, ptr, ptr, ptr, ptr, ptr, ptr, ptr, ptr, ptr, ptr, ptr, ptr, ptr, ptr, ptr, ptr, ptr, ptr, ptr, ptr, ptr, ptr, ptr, ptr, ptr, ptr, ptr, ptr, ptr, ptr, ptr, ptr, ptr, ptr, ptr, ptr, ptr, ptr, ptr, ptr, ptr, ptr, ptr, ptr, ptr, ptr, ptr, ptr, ptr, ptr, ptr, ptr, ptr, ptr, ptr, ptr, ptr, ptr, ptr, ptr, ptr, ptr, ptr, ptr, ptr, ptr, ptr, ptr, ptr, ptr, ptr, ptr, ptr, ptr, ptr, ptr, ptr, ptr, ptr, ptr, ptr, ptr, ptr, ptr, ptr }

; Function Attrs: mustprogress null_pointer_is_valid sspstrong uwtable
define void @_ZN16ImportTextDialog36on_sourceAddressLineEdit_textChangedERK7QString(ptr noundef align 8 dereferenceable_or_null(305) %0, ptr noundef align 8 dereferenceable(24) %1) #4 align 2 {
  %3 = alloca ptr, align 8
  %4 = alloca ptr, align 8
  store ptr %0, ptr %3, align 8
  store ptr %1, ptr %4, align 8
  %5 = load ptr, ptr %3, align 8
  %6 = getelementptr inbounds nuw %class.ImportTextDialog, ptr %5, i32 0, i32 1
  %7 = load ptr, ptr %6, align 8
  %8 = getelementptr inbounds nuw %class.Ui_ImportTextDialog, ptr %7, i32 0, i32 87
  %9 = load ptr, ptr %8, align 8
  %10 = call noundef i32 @_ZNK9QComboBox12currentIndexEv(ptr noundef align 8 dereferenceable_or_null(40) %9)
  %11 = icmp eq i32 %10, 1
  br i1 %11, label %12, label %21

12:                                               ; preds = %2
  %13 = getelementptr inbounds nuw %class.ImportTextDialog, ptr %5, i32 0, i32 1
  %14 = load ptr, ptr %13, align 8
  %15 = getelementptr inbounds nuw %class.Ui_ImportTextDialog, ptr %14, i32 0, i32 79
  %16 = load ptr, ptr %15, align 8
  %17 = getelementptr inbounds nuw %class.ImportTextDialog, ptr %5, i32 0, i32 16
  %18 = load ptr, ptr %4, align 8
  %19 = getelementptr inbounds nuw %class.ImportTextDialog, ptr %5, i32 0, i32 5
  %20 = getelementptr inbounds nuw %struct.text_import_info_t, ptr %19, i32 0, i32 11
  call void @_ZN16ImportTextDialog16checkIPv6AddressEP14SyntaxLineEditRbRK7QStringP10e_in6_addr(ptr noundef align 8 dereferenceable_or_null(305) %5, ptr noundef %16, ptr noundef align 1 dereferenceable(1) %17, ptr noundef align 8 dereferenceable(24) %18, ptr noundef %20)
  br label %30

21:                                               ; preds = %2
  %22 = getelementptr inbounds nuw %class.ImportTextDialog, ptr %5, i32 0, i32 1
  %23 = load ptr, ptr %22, align 8
  %24 = getelementptr inbounds nuw %class.Ui_ImportTextDialog, ptr %23, i32 0, i32 79
  %25 = load ptr, ptr %24, align 8
  %26 = getelementptr inbounds nuw %class.ImportTextDialog, ptr %5, i32 0, i32 16
  %27 = load ptr, ptr %4, align 8
  %28 = getelementptr inbounds nuw %class.ImportTextDialog, ptr %5, i32 0, i32 5
  %29 = getelementptr inbounds nuw %struct.text_import_info_t, ptr %28, i32 0, i32 11
  call void @_ZN16ImportTextDialog12checkAddressEP14SyntaxLineEditRbRK7QStringPj(ptr noundef align 8 dereferenceable_or_null(305) %5, ptr noundef %25, ptr noundef align 1 dereferenceable(1) %26, ptr noundef align 8 dereferenceable(24) %27, ptr noundef %29)
  br label %30

30:                                               ; preds = %21, %12
  ret void
}