; Function Attrs: mustprogress null_pointer_is_valid sspstrong uwtable
define void @_ZN16ImportTextDialog36on_sourceAddressLineEdit_textChangedERK7QString(ptr noundef align 8 dereferenceable_or_null(305) %0, ptr noundef align 8 dereferenceable(24) %1) local_unnamed_addr #2 align 2 {
  %3 = getelementptr inbounds nuw i8, ptr %0, i64 40
  %4 = load ptr, ptr %3, align 8
  %5 = getelementptr inbounds nuw i8, ptr %4, i64 696
  %6 = load ptr, ptr %5, align 8
  %7 = tail call noundef i32 @_ZNK9QComboBox12currentIndexEv(ptr noundef align 8 dereferenceable_or_null(40) %6)
  %8 = icmp eq i32 %7, 1
  %9 = load ptr, ptr %3, align 8
  %10 = getelementptr inbounds nuw i8, ptr %9, i64 632
  %11 = load ptr, ptr %10, align 8
  %12 = getelementptr inbounds nuw i8, ptr %0, i64 297
  %13 = getelementptr inbounds nuw i8, ptr %0, i64 188
  br i1 %8, label %14, label %15

14:                                               ; preds = %2
  tail call void @_ZN16ImportTextDialog16checkIPv6AddressEP14SyntaxLineEditRbRK7QStringP10e_in6_addr(ptr noundef align 8 dereferenceable_or_null(305) %0, ptr noundef %11, ptr noundef nonnull align 1 dereferenceable(1) %12, ptr noundef align 8 dereferenceable(24) %1, ptr noundef nonnull %13)
  br label %16

15:                                               ; preds = %2
  tail call void @_ZN16ImportTextDialog12checkAddressEP14SyntaxLineEditRbRK7QStringPj(ptr noundef align 8 dereferenceable_or_null(305) %0, ptr noundef %11, ptr noundef nonnull align 1 dereferenceable(1) %12, ptr noundef align 8 dereferenceable(24) %1, ptr noundef nonnull %13)
  br label %16

16:                                               ; preds = %15, %14
  ret void
}